target datalayout = "e-m:e-p270:32:32-p271:32:32-p272:64:64-i64:64-i128:128-f80:128-n8:16:32:64-S128"
target triple = "x86_64-pc-linux-gnu"

%"class.llvm::StringRef" = type { ptr, i64 }
%"struct.std::pair" = type <{ %"class.llvm::StringMapIterator", i8, [7 x i8] }>
%"class.llvm::StringMapIterator" = type { %"class.llvm::StringMapIterBase" }
%"class.llvm::StringMapIterBase" = type { ptr }
%"struct.std::pair.9" = type { %"class.llvm::StringRef", %"struct.llvm::DwarfStringPoolEntry" }
%"struct.llvm::DwarfStringPoolEntry" = type <{ ptr, i64, i32, [4 x i8] }>
%"class.llvm::iterator_facade_base<llvm::StringMapIterator<llvm::DwarfStringPoolEntry>, std::forward_iterator_tag, llvm::StringMapEntry<llvm::DwarfStringPoolEntry>>::PointerProxy" = type { ptr }
%"class.llvm::NonRelocatableStringpool" = type <{ %"class.llvm::StringMap", i64, i32, [4 x i8] }>
%"class.llvm::StringMap" = type { %"class.llvm::StringMapImpl", %"class.llvm::detail::AllocatorHolder" }
%"class.llvm::StringMapImpl" = type { ptr, i32, i32, i32, i32 }
%"class.llvm::detail::AllocatorHolder" = type { %"class.llvm::BumpPtrAllocatorImpl" }
%"class.llvm::BumpPtrAllocatorImpl" = type { ptr, ptr, %"class.llvm::SmallVector", %"class.llvm::SmallVector.4", i64, i64 }
%"class.llvm::SmallVector" = type { %"class.llvm::SmallVectorImpl", %"struct.llvm::SmallVectorStorage" }
%"class.llvm::SmallVectorImpl" = type { %"class.llvm::SmallVectorTemplateBase" }
%"class.llvm::SmallVectorTemplateBase" = type { %"class.llvm::SmallVectorTemplateCommon" }
%"class.llvm::SmallVectorTemplateCommon" = type { %"class.llvm::SmallVectorBase" }
%"class.llvm::SmallVectorBase" = type { ptr, i32, i32 }
%"struct.llvm::SmallVectorStorage" = type { [32 x i8] }
%"class.llvm::SmallVector.4" = type { %"class.llvm::SmallVectorImpl.5" }
%"class.llvm::SmallVectorImpl.5" = type { %"class.llvm::SmallVectorTemplateBase.6" }
%"class.llvm::SmallVectorTemplateBase.6" = type { %"class.llvm::SmallVectorTemplateCommon.7" }
%"class.llvm::SmallVectorTemplateCommon.7" = type { %"class.llvm::SmallVectorBase" }
%"class.llvm::StringMapEntryStorage" = type { %"class.llvm::StringMapEntryBase", %"struct.llvm::DwarfStringPoolEntry" }
%"class.llvm::StringMapEntryBase" = type { i64 }
%"class.llvm::StringMapEntry" = type { %"class.llvm::StringMapEntryStorage" }

; Function Attrs: mustprogress nounwind uwtable
define linkonce_odr hidden void @_ZN4llvm9StringRefC2EPKcm(ptr noundef nonnull align 8 dereferenceable(16) %0, ptr noundef %1, i64 noundef %2) unnamed_addr #0 comdat align 2 {
  %4 = alloca ptr, align 8
  %5 = alloca ptr, align 8
  %6 = alloca i64, align 8
  store ptr %0, ptr %4, align 8
  store ptr %1, ptr %5, align 8
  store i64 %2, ptr %6, align 8
  %7 = load ptr, ptr %4, align 8
  %8 = getelementptr inbounds nuw %"class.llvm::StringRef", ptr %7, i32 0, i32 0
  %9 = load ptr, ptr %5, align 8
  store ptr %9, ptr %8, align 8
  %10 = getelementptr inbounds nuw %"class.llvm::StringRef", ptr %7, i32 0, i32 1
  %11 = load i64, ptr %6, align 8
  store i64 %11, ptr %10, align 8
  ret void
}

; Function Attrs: mustprogress nounwind uwtable
define linkonce_odr hidden noundef i64 @_ZNK4llvm18StringMapEntryBase12getKeyLengthEv(ptr noundef nonnull align 8 dereferenceable(8) %0) #0 comdat align 2 {
  %2 = alloca ptr, align 8
  store ptr %0, ptr %2, align 8
  %3 = load ptr, ptr %2, align 8
  %4 = getelementptr inbounds nuw %"class.llvm::StringMapEntryBase", ptr %3, i32 0, i32 0
  %5 = load i64, ptr %4, align 8
  ret i64 %5
}

; Function Attrs: mustprogress nounwind uwtable
define linkonce_odr hidden noundef ptr @_ZNK4llvm14StringMapEntryINS_20DwarfStringPoolEntryEE10getKeyDataEv(ptr noundef nonnull align 8 dereferenceable(32) %0) #0 comdat align 2 {
  %2 = alloca ptr, align 8
  store ptr %0, ptr %2, align 8
  %3 = load ptr, ptr %2, align 8
  %4 = getelementptr inbounds %"class.llvm::StringMapEntry", ptr %3, i64 1
  ret ptr %4
}

; Function Attrs: mustprogress nounwind uwtable
define linkonce_odr hidden void @_ZN4llvm20iterator_facade_baseINS_17StringMapIteratorINS_20DwarfStringPoolEntryEEESt20forward_iterator_tagNS_14StringMapEntryIS2_EElPS6_RS6_E12PointerProxyC2IS8_EEOT_(ptr noundef nonnull align 8 dereferenceable(8) %0, ptr noundef nonnull align 8 dereferenceable(32) %1) unnamed_addr #0 comdat align 2 {
  %3 = alloca ptr, align 8
  %4 = alloca ptr, align 8
  store ptr %0, ptr %3, align 8
  store ptr %1, ptr %4, align 8
  %5 = load ptr, ptr %3, align 8
  %6 = getelementptr inbounds nuw %"class.llvm::iterator_facade_base<llvm::StringMapIterator<llvm::DwarfStringPoolEntry>, std::forward_iterator_tag, llvm::StringMapEntry<llvm::DwarfStringPoolEntry>>::PointerProxy", ptr %5, i32 0, i32 0
  %7 = load ptr, ptr %4, align 8
  store ptr %7, ptr %6, align 8
  ret void
}

; Function Attrs: mustprogress nounwind uwtable
define linkonce_odr hidden noundef nonnull align 8 dereferenceable(32) ptr @_ZNK4llvm17StringMapIteratorINS_20DwarfStringPoolEntryEEdeEv(ptr noundef nonnull align 8 dereferenceable(8) %0) #0 comdat align 2 {
  %2 = alloca ptr, align 8
  store ptr %0, ptr %2, align 8
  %3 = load ptr, ptr %2, align 8
  %4 = getelementptr inbounds nuw %"class.llvm::StringMapIterBase", ptr %3, i32 0, i32 0
  %5 = load ptr, ptr %4, align 8
  %6 = load ptr, ptr %5, align 8
  ret ptr %6
}

; Function Attrs: mustprogress nounwind uwtable
define linkonce_odr hidden { ptr, i64 } @_ZNK4llvm14StringMapEntryINS_20DwarfStringPoolEntryEE6getKeyEv(ptr noundef nonnull align 8 dereferenceable(32) %0) #0 comdat align 2 {
  %2 = alloca %"class.llvm::StringRef", align 8
  %3 = alloca ptr, align 8
  store ptr %0, ptr %3, align 8
  %4 = load ptr, ptr %3, align 8
  %5 = call noundef ptr @_ZNK4llvm14StringMapEntryINS_20DwarfStringPoolEntryEE10getKeyDataEv(ptr noundef nonnull align 8 dereferenceable(32) %4)
  %6 = call noundef i64 @_ZNK4llvm18StringMapEntryBase12getKeyLengthEv(ptr noundef nonnull align 8 dereferenceable(8) %4)
  call void @_ZN4llvm9StringRefC2EPKcm(ptr noundef nonnull align 8 dereferenceable(16) %2, ptr noundef %5, i64 noundef %6)
  %7 = load { ptr, i64 }, ptr %2, align 8
  ret { ptr, i64 } %7
}

; Function Attrs: mustprogress nounwind uwtable
define linkonce_odr hidden noundef ptr @_ZNK4llvm20iterator_facade_baseINS_17StringMapIteratorINS_20DwarfStringPoolEntryEEESt20forward_iterator_tagNS_14StringMapEntryIS2_EElPS6_RS6_E12PointerProxyptEv(ptr noundef nonnull align 8 dereferenceable(8) %0) #0 comdat align 2 {
  %2 = alloca ptr, align 8
  store ptr %0, ptr %2, align 8
  %3 = load ptr, ptr %2, align 8
  %4 = getelementptr inbounds nuw %"class.llvm::iterator_facade_base<llvm::StringMapIterator<llvm::DwarfStringPoolEntry>, std::forward_iterator_tag, llvm::StringMapEntry<llvm::DwarfStringPoolEntry>>::PointerProxy", ptr %3, i32 0, i32 0
  %5 = load ptr, ptr %4, align 8
  ret ptr %5
}

; Function Attrs: mustprogress nounwind uwtable
define linkonce_odr hidden ptr @_ZNK4llvm20iterator_facade_baseINS_17StringMapIteratorINS_20DwarfStringPoolEntryEEESt20forward_iterator_tagNS_14StringMapEntryIS2_EElPS6_RS6_EptEv(ptr noundef nonnull align 1 dereferenceable(1) %0) #0 comdat align 2 {
  %2 = alloca %"class.llvm::iterator_facade_base<llvm::StringMapIterator<llvm::DwarfStringPoolEntry>, std::forward_iterator_tag, llvm::StringMapEntry<llvm::DwarfStringPoolEntry>>::PointerProxy", align 8
  %3 = alloca ptr, align 8
  store ptr %0, ptr %3, align 8
  %4 = load ptr, ptr %3, align 8
  %5 = call noundef nonnull align 8 dereferenceable(32) ptr @_ZNK4llvm17StringMapIteratorINS_20DwarfStringPoolEntryEEdeEv(ptr noundef nonnull align 8 dereferenceable(8) %4)
  call void @_ZN4llvm20iterator_facade_baseINS_17StringMapIteratorINS_20DwarfStringPoolEntryEEESt20forward_iterator_tagNS_14StringMapEntryIS2_EElPS6_RS6_E12PointerProxyC2IS8_EEOT_(ptr noundef nonnull align 8 dereferenceable(8) %2, ptr noundef nonnull align 8 dereferenceable(32) %5)
  %6 = getelementptr inbounds nuw %"class.llvm::iterator_facade_base<llvm::StringMapIterator<llvm::DwarfStringPoolEntry>, std::forward_iterator_tag, llvm::StringMapEntry<llvm::DwarfStringPoolEntry>>::PointerProxy", ptr %2, i32 0, i32 0
  %7 = load ptr, ptr %6, align 8
  ret ptr %7
}

; Function Attrs: mustprogress nounwind uwtable
define linkonce_odr hidden { ptr, i8 } @_ZN4llvm9StringMapINS_20DwarfStringPoolEntryENS_20BumpPtrAllocatorImplINS_15MallocAllocatorELm4096ELm4096ELm128EEEE6insertESt4pairINS_9StringRefES1_E(ptr noundef nonnull align 8 dereferenceable(120) %0, ptr noundef byval(%"struct.std::pair.9") align 8 %1) #0 comdat align 2 {
  %3 = alloca %"struct.std::pair", align 8
  %4 = alloca ptr, align 8
  %5 = alloca %"class.llvm::StringRef", align 8
  %6 = alloca %"class.llvm::StringRef", align 8
  %7 = alloca { ptr, i8 }, align 8
  store ptr %0, ptr %4, align 8
  %8 = load ptr, ptr %4, align 8
  %9 = getelementptr inbounds nuw %"struct.std::pair.9", ptr %1, i32 0, i32 0
  call void @llvm.memcpy.p0.p0.i64(ptr align 8 %5, ptr align 8 %9, i64 16, i1 false)
  %10 = getelementptr inbounds nuw %"struct.std::pair.9", ptr %1, i32 0, i32 0
  call void @llvm.memcpy.p0.p0.i64(ptr align 8 %6, ptr align 8 %10, i64 16, i1 false)
  %11 = getelementptr inbounds nuw { ptr, i64 }, ptr %6, i32 0, i32 0
  %12 = load ptr, ptr %11, align 8
  %13 = getelementptr inbounds nuw { ptr, i64 }, ptr %6, i32 0, i32 1
  %14 = load i64, ptr %13, align 8
  %15 = call noundef i32 @_ZN4llvm13StringMapImpl4hashENS_9StringRefE(ptr %12, i64 %14)
  %16 = getelementptr inbounds nuw %"struct.std::pair.9", ptr %1, i32 0, i32 1
  %17 = getelementptr inbounds nuw { ptr, i64 }, ptr %5, i32 0, i32 0
  %18 = load ptr, ptr %17, align 8
  %19 = getelementptr inbounds nuw { ptr, i64 }, ptr %5, i32 0, i32 1
  %20 = load i64, ptr %19, align 8
  %21 = call { ptr, i8 } @_ZN4llvm9StringMapINS_20DwarfStringPoolEntryENS_20BumpPtrAllocatorImplINS_15MallocAllocatorELm4096ELm4096ELm128EEEE21try_emplace_with_hashIJS1_EEESt4pairINS_17StringMapIteratorIS1_EEbENS_9StringRefEjDpOT_(ptr noundef nonnull align 8 dereferenceable(120) %8, ptr %18, i64 %20, i32 noundef %15, ptr noundef nonnull align 8 dereferenceable(20) %16)
  store { ptr, i8 } %21, ptr %7, align 8
  call void @llvm.memcpy.p0.p0.i64(ptr align 8 %3, ptr align 8 %7, i64 9, i1 false)
  %22 = load { ptr, i8 }, ptr %3, align 8
  ret { ptr, i8 } %22
}

; Function Attrs: mustprogress nounwind uwtable
define linkonce_odr hidden void @_ZNSt4pairIN4llvm9StringRefENS0_20DwarfStringPoolEntryEEC2IRS1_RS2_TnNSt9enable_ifIXaaclsr5_PCCPE22_MoveConstructiblePairIT_T0_EEclsr5_PCCPE30_ImplicitlyMoveConvertiblePairIS8_S9_EEEbE4typeELb1EEEOS8_OS9_(ptr noundef nonnull align 8 dereferenceable(40) %0, ptr noundef nonnull align 8 dereferenceable(16) %1, ptr noundef nonnull align 8 dereferenceable(20) %2) unnamed_addr #0 comdat align 2 {
  %4 = alloca ptr, align 8
  %5 = alloca ptr, align 8
  %6 = alloca ptr, align 8
  store ptr %0, ptr %4, align 8
  store ptr %1, ptr %5, align 8
  store ptr %2, ptr %6, align 8
  %7 = load ptr, ptr %4, align 8
  %8 = getelementptr inbounds nuw %"struct.std::pair.9", ptr %7, i32 0, i32 0
  %9 = load ptr, ptr %5, align 8
  call void @llvm.memcpy.p0.p0.i64(ptr align 8 %8, ptr align 8 %9, i64 16, i1 false)
  %10 = getelementptr inbounds nuw %"struct.std::pair.9", ptr %7, i32 0, i32 1
  %11 = load ptr, ptr %6, align 8
  call void @llvm.memcpy.p0.p0.i64(ptr align 8 %10, ptr align 8 %11, i64 24, i1 false)
  ret void
}

; Function Attrs: mustprogress nounwind uwtable
define dso_local { ptr, i64 } @_ZN4llvm24NonRelocatableStringpool12internStringENS_9StringRefE(ptr noundef nonnull align 8 dereferenceable(132) %0, ptr %1, i64 %2) #0 align 2 {
  %4 = alloca %"class.llvm::StringRef", align 8
  %5 = alloca %"class.llvm::StringRef", align 8
  %6 = alloca ptr, align 8
  %7 = alloca %"struct.llvm::DwarfStringPoolEntry", align 8
  %8 = alloca %"struct.std::pair", align 8
  %9 = alloca %"struct.std::pair.9", align 8
  %10 = alloca { ptr, i8 }, align 8
  %11 = alloca %"class.llvm::iterator_facade_base<llvm::StringMapIterator<llvm::DwarfStringPoolEntry>, std::forward_iterator_tag, llvm::StringMapEntry<llvm::DwarfStringPoolEntry>>::PointerProxy", align 8
  %12 = getelementptr inbounds nuw { ptr, i64 }, ptr %5, i32 0, i32 0
  store ptr %1, ptr %12, align 8
  %13 = getelementptr inbounds nuw { ptr, i64 }, ptr %5, i32 0, i32 1
  store i64 %2, ptr %13, align 8
  store ptr %0, ptr %6, align 8
  %14 = load ptr, ptr %6, align 8
  call void @llvm.memset.p0.i64(ptr align 8 %7, i8 0, i64 24, i1 false)
  %15 = getelementptr inbounds nuw %"struct.llvm::DwarfStringPoolEntry", ptr %7, i32 0, i32 2
  store i32 -1, ptr %15, align 8
  %16 = getelementptr inbounds nuw %"class.llvm::NonRelocatableStringpool", ptr %14, i32 0, i32 0
  call void @_ZNSt4pairIN4llvm9StringRefENS0_20DwarfStringPoolEntryEEC2IRS1_RS2_TnNSt9enable_ifIXaaclsr5_PCCPE22_MoveConstructiblePairIT_T0_EEclsr5_PCCPE30_ImplicitlyMoveConvertiblePairIS8_S9_EEEbE4typeELb1EEEOS8_OS9_(ptr noundef nonnull align 8 dereferenceable(40) %9, ptr noundef nonnull align 8 dereferenceable(16) %5, ptr noundef nonnull align 8 dereferenceable(20) %7)
  %17 = call { ptr, i8 } @_ZN4llvm9StringMapINS_20DwarfStringPoolEntryENS_20BumpPtrAllocatorImplINS_15MallocAllocatorELm4096ELm4096ELm128EEEE6insertESt4pairINS_9StringRefES1_E(ptr noundef nonnull align 8 dereferenceable(120) %16, ptr noundef byval(%"struct.std::pair.9") align 8 %9)
  store { ptr, i8 } %17, ptr %10, align 8
  call void @llvm.memcpy.p0.p0.i64(ptr align 8 %8, ptr align 8 %10, i64 9, i1 false)
  %18 = getelementptr inbounds nuw %"struct.std::pair", ptr %8, i32 0, i32 0
  %19 = call ptr @_ZNK4llvm20iterator_facade_baseINS_17StringMapIteratorINS_20DwarfStringPoolEntryEEESt20forward_iterator_tagNS_14StringMapEntryIS2_EElPS6_RS6_EptEv(ptr noundef nonnull align 1 dereferenceable(1) %18)
  %20 = getelementptr inbounds nuw %"class.llvm::iterator_facade_base<llvm::StringMapIterator<llvm::DwarfStringPoolEntry>, std::forward_iterator_tag, llvm::StringMapEntry<llvm::DwarfStringPoolEntry>>::PointerProxy", ptr %11, i32 0, i32 0
  store ptr %19, ptr %20, align 8
  %21 = call noundef ptr @_ZNK4llvm20iterator_facade_baseINS_17StringMapIteratorINS_20DwarfStringPoolEntryEEESt20forward_iterator_tagNS_14StringMapEntryIS2_EElPS6_RS6_E12PointerProxyptEv(ptr noundef nonnull align 8 dereferenceable(8) %11)
  %22 = call { ptr, i64 } @_ZNK4llvm14StringMapEntryINS_20DwarfStringPoolEntryEE6getKeyEv(ptr noundef nonnull align 8 dereferenceable(32) %21)
  %23 = getelementptr inbounds nuw { ptr, i64 }, ptr %4, i32 0, i32 0
  %24 = extractvalue { ptr, i64 } %22, 0
  store ptr %24, ptr %23, align 8
  %25 = getelementptr inbounds nuw { ptr, i64 }, ptr %4, i32 0, i32 1
  %26 = extractvalue { ptr, i64 } %22, 1
  store i64 %26, ptr %25, align 8
  %27 = load { ptr, i64 }, ptr %4, align 8
  ret { ptr, i64 } %27
}