; Function Attrs: mustprogress nounwind uwtable
define dso_local { ptr, i64 } @_ZN4llvm24NonRelocatableStringpool12internStringENS_9StringRefE(ptr noundef nonnull align 8 dereferenceable(132) %0, ptr %1, i64 %2) local_unnamed_addr #0 align 2 {
  %4 = alloca %"struct.std::pair.9", align 8
  %.sroa.06.sroa.3.0..sroa_idx = getelementptr inbounds nuw i8, ptr %4, i64 16
  call void @llvm.lifetime.start.p0(i64 40, ptr nonnull %4)
  call void @llvm.memset.p0.i64(ptr noundef nonnull align 8 dereferenceable(16) %.sroa.06.sroa.3.0..sroa_idx, i8 0, i64 16, i1 false)
  store ptr %1, ptr %4, align 8
  %.sroa.06.sroa.2.0..sroa_idx = getelementptr inbounds nuw i8, ptr %4, i64 8
  store i64 %2, ptr %.sroa.06.sroa.2.0..sroa_idx, align 8
  %.sroa.37.0..sroa_idx = getelementptr inbounds nuw i8, ptr %4, i64 32
  store i32 -1, ptr %.sroa.37.0..sroa_idx, align 8
  %.sroa.4.0..sroa_idx = getelementptr inbounds nuw i8, ptr %4, i64 36
  store i32 0, ptr %.sroa.4.0..sroa_idx, align 4
  %5 = tail call noundef i32 @_ZN4llvm13StringMapImpl4hashENS_9StringRefE(ptr %1, i64 %2) #13
  %6 = call { ptr, i8 } @_ZN4llvm9StringMapINS_20DwarfStringPoolEntryENS_20BumpPtrAllocatorImplINS_15MallocAllocatorELm4096ELm4096ELm128EEEE21try_emplace_with_hashIJS1_EEESt4pairINS_17StringMapIteratorIS1_EEbENS_9StringRefEjDpOT_(ptr noundef nonnull align 8 dereferenceable(120) %0, ptr %1, i64 %2, i32 noundef %5, ptr noundef nonnull align 8 dereferenceable(20) %.sroa.06.sroa.3.0..sroa_idx)
  call void @llvm.lifetime.end.p0(i64 40, ptr nonnull %4)
  %.fca.0.extract = extractvalue { ptr, i8 } %6, 0
  %7 = load ptr, ptr %.fca.0.extract, align 8
  %8 = getelementptr inbounds nuw i8, ptr %7, i64 32
  %9 = load i64, ptr %7, align 8
  %.fca.0.insert.i = insertvalue { ptr, i64 } poison, ptr %8, 0
  %.fca.1.insert.i = insertvalue { ptr, i64 } %.fca.0.insert.i, i64 %9, 1
  ret { ptr, i64 } %.fca.1.insert.i
}